target datalayout = "e-m:e-p270:32:32-p271:32:32-p272:64:64-i64:64-i128:128-f80:128-n8:16:32:64-S128"
target triple = "x86_64-pc-linux-gnu"

%struct.pull_varnos_context = type { ptr, ptr, i32 }

; Function Attrs: nounwind uwtable
define dso_local ptr @pull_varnos(ptr noundef %0, ptr noundef %1) #0 {
  %3 = alloca ptr, align 8
  %4 = alloca ptr, align 8
  %5 = alloca %struct.pull_varnos_context, align 8
  store ptr %0, ptr %3, align 8
  store ptr %1, ptr %4, align 8
  call void @llvm.lifetime.start.p0(i64 24, ptr %5) #6
  %6 = getelementptr inbounds nuw %struct.pull_varnos_context, ptr %5, i32 0, i32 0
  store ptr null, ptr %6, align 8
  %7 = load ptr, ptr %3, align 8
  %8 = getelementptr inbounds nuw %struct.pull_varnos_context, ptr %5, i32 0, i32 1
  store ptr %7, ptr %8, align 8
  %9 = getelementptr inbounds nuw %struct.pull_varnos_context, ptr %5, i32 0, i32 2
  store i32 0, ptr %9, align 8
  %10 = load ptr, ptr %4, align 8
  %11 = call zeroext i1 @query_or_expression_tree_walker_impl(ptr noundef %10, ptr noundef @pull_varnos_walker, ptr noundef %5, i32 noundef 0)
  %12 = getelementptr inbounds nuw %struct.pull_varnos_context, ptr %5, i32 0, i32 0
  %13 = load ptr, ptr %12, align 8
  call void @llvm.lifetime.end.p0(i64 24, ptr %5) #6
  ret ptr %13
}